target datalayout = "e-m:e-p270:32:32-p271:32:32-p272:64:64-i64:64-i128:128-f80:128-n8:16:32:64-S128"
target triple = "x86_64-pc-linux-gnu"

%struct.AVComplexDouble = type { double, double }
%struct.AVTXContext = type { i32, i32, ptr, ptr, ptr, ptr, [4 x ptr], i32, [4 x ptr], ptr, i32, i64, i32, float, double, ptr }

; Function Attrs: nounwind uwtable
define internal void @ff_tx_rdft_r2i_mod2_double_c(ptr noundef %0, ptr noundef %1, ptr noundef %2, i64 noundef %3) #4 {
  %5 = alloca ptr, align 8
  %6 = alloca ptr, align 8
  %7 = alloca ptr, align 8
  %8 = alloca i64, align 8
  %9 = alloca i32, align 4
  %10 = alloca i32, align 4
  %11 = alloca i32, align 4
  %12 = alloca i32, align 4
  %13 = alloca ptr, align 8
  %14 = alloca ptr, align 8
  %15 = alloca ptr, align 8
  %16 = alloca ptr, align 8
  %17 = alloca ptr, align 8
  %18 = alloca double, align 8
  %19 = alloca double, align 8
  %20 = alloca [4 x double], align 16
  %21 = alloca %struct.AVComplexDouble, align 8
  %22 = alloca %struct.AVComplexDouble, align 8
  %23 = alloca i32, align 4
  %24 = alloca [4 x double], align 16
  %25 = alloca %struct.AVComplexDouble, align 8
  %26 = alloca %struct.AVComplexDouble, align 8
  %27 = alloca i32, align 4
  store ptr %0, ptr %5, align 8, !tbaa !17
  store ptr %1, ptr %6, align 8, !tbaa !8
  store ptr %2, ptr %7, align 8, !tbaa !8
  store i64 %3, ptr %8, align 8, !tbaa !30
  call void @llvm.lifetime.start.p0(i64 4, ptr %9) #10
  %28 = load ptr, ptr %5, align 8, !tbaa !17
  %29 = getelementptr inbounds nuw %struct.AVTXContext, ptr %28, i32 0, i32 0
  %30 = load i32, ptr %29, align 8, !tbaa !21
  store i32 %30, ptr %9, align 4, !tbaa !4
  call void @llvm.lifetime.start.p0(i64 4, ptr %10) #10
  %31 = load i32, ptr %9, align 4, !tbaa !4
  %32 = ashr i32 %31, 1
  store i32 %32, ptr %10, align 4, !tbaa !4
  call void @llvm.lifetime.start.p0(i64 4, ptr %11) #10
  %33 = load i32, ptr %9, align 4, !tbaa !4
  %34 = ashr i32 %33, 2
  store i32 %34, ptr %11, align 4, !tbaa !4
  call void @llvm.lifetime.start.p0(i64 4, ptr %12) #10
  %35 = load i32, ptr %9, align 4, !tbaa !4
  %36 = add nsw i32 %35, 4
  %37 = sub nsw i32 %36, 1
  %38 = and i32 %37, -4
  %39 = sdiv i32 %38, 4
  store i32 %39, ptr %12, align 4, !tbaa !4
  call void @llvm.lifetime.start.p0(i64 8, ptr %13) #10
  %40 = load ptr, ptr %5, align 8, !tbaa !17
  %41 = getelementptr inbounds nuw %struct.AVTXContext, ptr %40, i32 0, i32 3
  %42 = load ptr, ptr %41, align 8, !tbaa !31
  store ptr %42, ptr %13, align 8, !tbaa !38
  call void @llvm.lifetime.start.p0(i64 8, ptr %14) #10
  %43 = load ptr, ptr %13, align 8, !tbaa !38
  %44 = getelementptr inbounds double, ptr %43, i64 8
  store ptr %44, ptr %14, align 8, !tbaa !38
  call void @llvm.lifetime.start.p0(i64 8, ptr %15) #10
  %45 = load ptr, ptr %14, align 8, !tbaa !38
  %46 = load i32, ptr %12, align 4, !tbaa !4
  %47 = sext i32 %46 to i64
  %48 = getelementptr inbounds double, ptr %45, i64 %47
  store ptr %48, ptr %15, align 8, !tbaa !38
  call void @llvm.lifetime.start.p0(i64 8, ptr %16) #10
  %49 = load ptr, ptr %6, align 8, !tbaa !8
  store ptr %49, ptr %16, align 8, !tbaa !59
  call void @llvm.lifetime.start.p0(i64 8, ptr %17) #10
  %50 = load ptr, ptr %6, align 8, !tbaa !8
  store ptr %50, ptr %17, align 8, !tbaa !38
  call void @llvm.lifetime.start.p0(i64 8, ptr %18) #10
  call void @llvm.lifetime.start.p0(i64 8, ptr %19) #10
  call void @llvm.lifetime.start.p0(i64 32, ptr %20) #10
  call void @llvm.lifetime.start.p0(i64 16, ptr %21) #10
  call void @llvm.lifetime.start.p0(i64 16, ptr %22) #10
  %51 = load ptr, ptr %5, align 8, !tbaa !17
  %52 = getelementptr inbounds nuw %struct.AVTXContext, ptr %51, i32 0, i32 6
  %53 = getelementptr inbounds [4 x ptr], ptr %52, i64 0, i64 0
  %54 = load ptr, ptr %53, align 8, !tbaa !8
  %55 = load ptr, ptr %5, align 8, !tbaa !17
  %56 = getelementptr inbounds nuw %struct.AVTXContext, ptr %55, i32 0, i32 5
  %57 = load ptr, ptr %56, align 8, !tbaa !67
  %58 = getelementptr inbounds %struct.AVTXContext, ptr %57, i64 0
  %59 = load ptr, ptr %6, align 8, !tbaa !8
  %60 = load ptr, ptr %7, align 8, !tbaa !8
  call void %54(ptr noundef %58, ptr noundef %59, ptr noundef %60, i64 noundef 16)
  %61 = load ptr, ptr %16, align 8, !tbaa !59
  %62 = getelementptr inbounds %struct.AVComplexDouble, ptr %61, i64 0
  %63 = getelementptr inbounds nuw %struct.AVComplexDouble, ptr %62, i32 0, i32 0
  %64 = load double, ptr %63, align 8, !tbaa !32
  store double %64, ptr %18, align 8, !tbaa !29
  %65 = load double, ptr %18, align 8, !tbaa !29
  %66 = load ptr, ptr %16, align 8, !tbaa !59
  %67 = getelementptr inbounds %struct.AVComplexDouble, ptr %66, i64 0
  %68 = getelementptr inbounds nuw %struct.AVComplexDouble, ptr %67, i32 0, i32 1
  %69 = load double, ptr %68, align 8, !tbaa !34
  %70 = fadd nsz double %65, %69
  %71 = load ptr, ptr %16, align 8, !tbaa !59
  %72 = getelementptr inbounds %struct.AVComplexDouble, ptr %71, i64 0
  %73 = getelementptr inbounds nuw %struct.AVComplexDouble, ptr %72, i32 0, i32 0
  store double %70, ptr %73, align 8, !tbaa !32
  %74 = load double, ptr %18, align 8, !tbaa !29
  %75 = load ptr, ptr %16, align 8, !tbaa !59
  %76 = getelementptr inbounds %struct.AVComplexDouble, ptr %75, i64 0
  %77 = getelementptr inbounds nuw %struct.AVComplexDouble, ptr %76, i32 0, i32 1
  %78 = load double, ptr %77, align 8, !tbaa !34
  %79 = fsub nsz double %74, %78
  store double %79, ptr %18, align 8, !tbaa !29
  %80 = load ptr, ptr %13, align 8, !tbaa !38
  %81 = getelementptr inbounds double, ptr %80, i64 0
  %82 = load double, ptr %81, align 8, !tbaa !29
  %83 = load ptr, ptr %16, align 8, !tbaa !59
  %84 = getelementptr inbounds %struct.AVComplexDouble, ptr %83, i64 0
  %85 = getelementptr inbounds nuw %struct.AVComplexDouble, ptr %84, i32 0, i32 0
  %86 = load double, ptr %85, align 8, !tbaa !32
  %87 = fmul nsz double %82, %86
  %88 = load ptr, ptr %16, align 8, !tbaa !59
  %89 = getelementptr inbounds %struct.AVComplexDouble, ptr %88, i64 0
  %90 = getelementptr inbounds nuw %struct.AVComplexDouble, ptr %89, i32 0, i32 0
  store double %87, ptr %90, align 8, !tbaa !32
  %91 = load ptr, ptr %13, align 8, !tbaa !38
  %92 = getelementptr inbounds double, ptr %91, i64 1
  %93 = load double, ptr %92, align 8, !tbaa !29
  %94 = load double, ptr %18, align 8, !tbaa !29
  %95 = fmul nsz double %93, %94
  store double %95, ptr %18, align 8, !tbaa !29
  %96 = load ptr, ptr %13, align 8, !tbaa !38
  %97 = getelementptr inbounds double, ptr %96, i64 2
  %98 = load double, ptr %97, align 8, !tbaa !29
  %99 = load ptr, ptr %16, align 8, !tbaa !59
  %100 = load i32, ptr %11, align 4, !tbaa !4
  %101 = sext i32 %100 to i64
  %102 = getelementptr inbounds %struct.AVComplexDouble, ptr %99, i64 %101
  %103 = getelementptr inbounds nuw %struct.AVComplexDouble, ptr %102, i32 0, i32 0
  %104 = load double, ptr %103, align 8, !tbaa !32
  %105 = fmul nsz double %98, %104
  %106 = load ptr, ptr %16, align 8, !tbaa !59
  %107 = load i32, ptr %11, align 4, !tbaa !4
  %108 = sext i32 %107 to i64
  %109 = getelementptr inbounds %struct.AVComplexDouble, ptr %106, i64 %108
  %110 = getelementptr inbounds nuw %struct.AVComplexDouble, ptr %109, i32 0, i32 0
  store double %105, ptr %110, align 8, !tbaa !32
  %111 = load ptr, ptr %16, align 8, !tbaa !59
  %112 = load i32, ptr %11, align 4, !tbaa !4
  %113 = sext i32 %112 to i64
  %114 = getelementptr inbounds %struct.AVComplexDouble, ptr %111, i64 %113
  call void @llvm.memcpy.p0.p0.i64(ptr align 8 %21, ptr align 8 %114, i64 16, i1 false), !tbaa.struct !35
  %115 = load ptr, ptr %16, align 8, !tbaa !59
  %116 = load i32, ptr %11, align 4, !tbaa !4
  %117 = add nsw i32 %116, 1
  %118 = sext i32 %117 to i64
  %119 = getelementptr inbounds %struct.AVComplexDouble, ptr %115, i64 %118
  call void @llvm.memcpy.p0.p0.i64(ptr align 8 %22, ptr align 8 %119, i64 16, i1 false), !tbaa.struct !35
  %120 = load ptr, ptr %13, align 8, !tbaa !38
  %121 = getelementptr inbounds double, ptr %120, i64 5
  %122 = load double, ptr %121, align 8, !tbaa !29
  %123 = getelementptr inbounds nuw %struct.AVComplexDouble, ptr %21, i32 0, i32 1
  %124 = load double, ptr %123, align 8, !tbaa !34
  %125 = getelementptr inbounds nuw %struct.AVComplexDouble, ptr %22, i32 0, i32 1
  %126 = load double, ptr %125, align 8, !tbaa !34
  %127 = fsub nsz double %124, %126
  %128 = fmul nsz double %122, %127
  %129 = getelementptr inbounds [4 x double], ptr %20, i64 0, i64 0
  store double %128, ptr %129, align 16, !tbaa !29
  %130 = load ptr, ptr %13, align 8, !tbaa !38
  %131 = getelementptr inbounds double, ptr %130, i64 6
  %132 = load double, ptr %131, align 8, !tbaa !29
  %133 = getelementptr inbounds nuw %struct.AVComplexDouble, ptr %21, i32 0, i32 1
  %134 = load double, ptr %133, align 8, !tbaa !34
  %135 = getelementptr inbounds nuw %struct.AVComplexDouble, ptr %22, i32 0, i32 1
  %136 = load double, ptr %135, align 8, !tbaa !34
  %137 = fadd nsz double %134, %136
  %138 = fmul nsz double %132, %137
  %139 = getelementptr inbounds [4 x double], ptr %20, i64 0, i64 1
  store double %138, ptr %139, align 8, !tbaa !29
  %140 = load ptr, ptr %13, align 8, !tbaa !38
  %141 = getelementptr inbounds double, ptr %140, i64 7
  %142 = load double, ptr %141, align 8, !tbaa !29
  %143 = getelementptr inbounds nuw %struct.AVComplexDouble, ptr %21, i32 0, i32 0
  %144 = load double, ptr %143, align 8, !tbaa !32
  %145 = getelementptr inbounds nuw %struct.AVComplexDouble, ptr %22, i32 0, i32 0
  %146 = load double, ptr %145, align 8, !tbaa !32
  %147 = fsub nsz double %144, %146
  %148 = fmul nsz double %142, %147
  %149 = getelementptr inbounds [4 x double], ptr %20, i64 0, i64 2
  store double %148, ptr %149, align 16, !tbaa !29
  %150 = getelementptr inbounds [4 x double], ptr %20, i64 0, i64 1
  %151 = load double, ptr %150, align 8, !tbaa !29
  %152 = load ptr, ptr %15, align 8, !tbaa !38
  %153 = load i32, ptr %11, align 4, !tbaa !4
  %154 = sext i32 %153 to i64
  %155 = getelementptr inbounds double, ptr %152, i64 %154
  %156 = load double, ptr %155, align 8, !tbaa !29
  %157 = getelementptr inbounds [4 x double], ptr %20, i64 0, i64 2
  %158 = load double, ptr %157, align 16, !tbaa !29
  %159 = load ptr, ptr %14, align 8, !tbaa !38
  %160 = load i32, ptr %11, align 4, !tbaa !4
  %161 = sext i32 %160 to i64
  %162 = getelementptr inbounds double, ptr %159, i64 %161
  %163 = load double, ptr %162, align 8, !tbaa !29
  %164 = fmul nsz double %158, %163
  %165 = call nsz double @llvm.fmuladd.f64(double %151, double %156, double %164)
  %166 = getelementptr inbounds [4 x double], ptr %20, i64 0, i64 3
  store double %165, ptr %166, align 8, !tbaa !29
  %167 = getelementptr inbounds [4 x double], ptr %20, i64 0, i64 0
  %168 = load double, ptr %167, align 16, !tbaa !29
  %169 = getelementptr inbounds [4 x double], ptr %20, i64 0, i64 3
  %170 = load double, ptr %169, align 8, !tbaa !29
  %171 = fadd nsz double %168, %170
  store double %171, ptr %19, align 8, !tbaa !29
  call void @llvm.lifetime.start.p0(i64 4, ptr %23) #10
  store i32 1, ptr %23, align 4, !tbaa !4
  br label %172

172:                                              ; preds = %257, %4
  %173 = load i32, ptr %23, align 4, !tbaa !4
  %174 = load i32, ptr %11, align 4, !tbaa !4
  %175 = icmp sle i32 %173, %174
  br i1 %175, label %177, label %176

176:                                              ; preds = %172
  call void @llvm.lifetime.end.p0(i64 4, ptr %23) #10
  br label %260

177:                                              ; preds = %172
  call void @llvm.lifetime.start.p0(i64 32, ptr %24) #10
  call void @llvm.lifetime.start.p0(i64 16, ptr %25) #10
  %178 = load ptr, ptr %16, align 8, !tbaa !59
  %179 = load i32, ptr %23, align 4, !tbaa !4
  %180 = sext i32 %179 to i64
  %181 = getelementptr inbounds %struct.AVComplexDouble, ptr %178, i64 %180
  call void @llvm.memcpy.p0.p0.i64(ptr align 8 %25, ptr align 8 %181, i64 16, i1 false), !tbaa.struct !35
  call void @llvm.lifetime.start.p0(i64 16, ptr %26) #10
  %182 = load ptr, ptr %16, align 8, !tbaa !59
  %183 = load i32, ptr %10, align 4, !tbaa !4
  %184 = load i32, ptr %23, align 4, !tbaa !4
  %185 = sub nsw i32 %183, %184
  %186 = sext i32 %185 to i64
  %187 = getelementptr inbounds %struct.AVComplexDouble, ptr %182, i64 %186
  call void @llvm.memcpy.p0.p0.i64(ptr align 8 %26, ptr align 8 %187, i64 16, i1 false), !tbaa.struct !35
  %188 = load ptr, ptr %13, align 8, !tbaa !38
  %189 = getelementptr inbounds double, ptr %188, i64 5
  %190 = load double, ptr %189, align 8, !tbaa !29
  %191 = getelementptr inbounds nuw %struct.AVComplexDouble, ptr %25, i32 0, i32 1
  %192 = load double, ptr %191, align 8, !tbaa !34
  %193 = getelementptr inbounds nuw %struct.AVComplexDouble, ptr %26, i32 0, i32 1
  %194 = load double, ptr %193, align 8, !tbaa !34
  %195 = fsub nsz double %192, %194
  %196 = fmul nsz double %190, %195
  %197 = getelementptr inbounds [4 x double], ptr %24, i64 0, i64 0
  store double %196, ptr %197, align 16, !tbaa !29
  %198 = load ptr, ptr %13, align 8, !tbaa !38
  %199 = getelementptr inbounds double, ptr %198, i64 6
  %200 = load double, ptr %199, align 8, !tbaa !29
  %201 = getelementptr inbounds nuw %struct.AVComplexDouble, ptr %25, i32 0, i32 1
  %202 = load double, ptr %201, align 8, !tbaa !34
  %203 = getelementptr inbounds nuw %struct.AVComplexDouble, ptr %26, i32 0, i32 1
  %204 = load double, ptr %203, align 8, !tbaa !34
  %205 = fadd nsz double %202, %204
  %206 = fmul nsz double %200, %205
  %207 = getelementptr inbounds [4 x double], ptr %24, i64 0, i64 1
  store double %206, ptr %207, align 8, !tbaa !29
  %208 = load ptr, ptr %13, align 8, !tbaa !38
  %209 = getelementptr inbounds double, ptr %208, i64 7
  %210 = load double, ptr %209, align 8, !tbaa !29
  %211 = getelementptr inbounds nuw %struct.AVComplexDouble, ptr %25, i32 0, i32 0
  %212 = load double, ptr %211, align 8, !tbaa !32
  %213 = getelementptr inbounds nuw %struct.AVComplexDouble, ptr %26, i32 0, i32 0
  %214 = load double, ptr %213, align 8, !tbaa !32
  %215 = fsub nsz double %212, %214
  %216 = fmul nsz double %210, %215
  %217 = getelementptr inbounds [4 x double], ptr %24, i64 0, i64 2
  store double %216, ptr %217, align 16, !tbaa !29
  %218 = getelementptr inbounds [4 x double], ptr %24, i64 0, i64 1
  %219 = load double, ptr %218, align 8, !tbaa !29
  %220 = load ptr, ptr %15, align 8, !tbaa !38
  %221 = load i32, ptr %23, align 4, !tbaa !4
  %222 = sext i32 %221 to i64
  %223 = getelementptr inbounds double, ptr %220, i64 %222
  %224 = load double, ptr %223, align 8, !tbaa !29
  %225 = getelementptr inbounds [4 x double], ptr %24, i64 0, i64 2
  %226 = load double, ptr %225, align 16, !tbaa !29
  %227 = load ptr, ptr %14, align 8, !tbaa !38
  %228 = load i32, ptr %23, align 4, !tbaa !4
  %229 = sext i32 %228 to i64
  %230 = getelementptr inbounds double, ptr %227, i64 %229
  %231 = load double, ptr %230, align 8, !tbaa !29
  %232 = fmul nsz double %226, %231
  %233 = call nsz double @llvm.fmuladd.f64(double %219, double %224, double %232)
  %234 = getelementptr inbounds [4 x double], ptr %24, i64 0, i64 3
  store double %233, ptr %234, align 8, !tbaa !29
  %235 = getelementptr inbounds [4 x double], ptr %24, i64 0, i64 3
  %236 = load double, ptr %235, align 8, !tbaa !29
  %237 = getelementptr inbounds [4 x double], ptr %24, i64 0, i64 0
  %238 = load double, ptr %237, align 16, !tbaa !29
  %239 = fsub nsz double %236, %238
  %240 = load ptr, ptr %17, align 8, !tbaa !38
  %241 = load i32, ptr %23, align 4, !tbaa !4
  %242 = sub nsw i32 %241, 1
  %243 = sext i32 %242 to i64
  %244 = getelementptr inbounds double, ptr %240, i64 %243
  store double %239, ptr %244, align 8, !tbaa !29
  %245 = getelementptr inbounds [4 x double], ptr %24, i64 0, i64 0
  %246 = load double, ptr %245, align 16, !tbaa !29
  %247 = getelementptr inbounds [4 x double], ptr %24, i64 0, i64 3
  %248 = load double, ptr %247, align 8, !tbaa !29
  %249 = fadd nsz double %246, %248
  %250 = load ptr, ptr %17, align 8, !tbaa !38
  %251 = load i32, ptr %9, align 4, !tbaa !4
  %252 = load i32, ptr %23, align 4, !tbaa !4
  %253 = sub nsw i32 %251, %252
  %254 = sub nsw i32 %253, 1
  %255 = sext i32 %254 to i64
  %256 = getelementptr inbounds double, ptr %250, i64 %255
  store double %249, ptr %256, align 8, !tbaa !29
  call void @llvm.lifetime.end.p0(i64 16, ptr %26) #10
  call void @llvm.lifetime.end.p0(i64 16, ptr %25) #10
  call void @llvm.lifetime.end.p0(i64 32, ptr %24) #10
  br label %257

257:                                              ; preds = %177
  %258 = load i32, ptr %23, align 4, !tbaa !4
  %259 = add nsw i32 %258, 1
  store i32 %259, ptr %23, align 4, !tbaa !4
  br label %172, !llvm.loop !156

260:                                              ; preds = %176
  call void @llvm.lifetime.start.p0(i64 4, ptr %27) #10
  store i32 1, ptr %27, align 4, !tbaa !4
  br label %261

261:                                              ; preds = %281, %260
  %262 = load i32, ptr %27, align 4, !tbaa !4
  %263 = load i32, ptr %11, align 4, !tbaa !4
  %264 = add nsw i32 %263, 1
  %265 = icmp slt i32 %262, %264
  br i1 %265, label %267, label %266

266:                                              ; preds = %261
  call void @llvm.lifetime.end.p0(i64 4, ptr %27) #10
  br label %284

267:                                              ; preds = %261
  %268 = load ptr, ptr %17, align 8, !tbaa !38
  %269 = load i32, ptr %9, align 4, !tbaa !4
  %270 = load i32, ptr %27, align 4, !tbaa !4
  %271 = sub nsw i32 %269, %270
  %272 = sext i32 %271 to i64
  %273 = getelementptr inbounds double, ptr %268, i64 %272
  %274 = load double, ptr %273, align 8, !tbaa !29
  %275 = load ptr, ptr %17, align 8, !tbaa !38
  %276 = load i32, ptr %10, align 4, !tbaa !4
  %277 = load i32, ptr %27, align 4, !tbaa !4
  %278 = sub nsw i32 %276, %277
  %279 = sext i32 %278 to i64
  %280 = getelementptr inbounds double, ptr %275, i64 %279
  store double %274, ptr %280, align 8, !tbaa !29
  br label %281

281:                                              ; preds = %267
  %282 = load i32, ptr %27, align 4, !tbaa !4
  %283 = add nsw i32 %282, 1
  store i32 %283, ptr %27, align 4, !tbaa !4
  br label %261, !llvm.loop !157

284:                                              ; preds = %266
  %285 = load double, ptr %19, align 8, !tbaa !29
  %286 = load ptr, ptr %17, align 8, !tbaa !38
  %287 = load i32, ptr %11, align 4, !tbaa !4
  %288 = sext i32 %287 to i64
  %289 = getelementptr inbounds double, ptr %286, i64 %288
  store double %285, ptr %289, align 8, !tbaa !29
  call void @llvm.lifetime.end.p0(i64 16, ptr %22) #10
  call void @llvm.lifetime.end.p0(i64 16, ptr %21) #10
  call void @llvm.lifetime.end.p0(i64 32, ptr %20) #10
  call void @llvm.lifetime.end.p0(i64 8, ptr %19) #10
  call void @llvm.lifetime.end.p0(i64 8, ptr %18) #10
  call void @llvm.lifetime.end.p0(i64 8, ptr %17) #10
  call void @llvm.lifetime.end.p0(i64 8, ptr %16) #10
  call void @llvm.lifetime.end.p0(i64 8, ptr %15) #10
  call void @llvm.lifetime.end.p0(i64 8, ptr %14) #10
  call void @llvm.lifetime.end.p0(i64 8, ptr %13) #10
  call void @llvm.lifetime.end.p0(i64 4, ptr %12) #10
  call void @llvm.lifetime.end.p0(i64 4, ptr %11) #10
  call void @llvm.lifetime.end.p0(i64 4, ptr %10) #10
  call void @llvm.lifetime.end.p0(i64 4, ptr %9) #10
  ret void
}